
out/boot.elf:     file format elf32-tradlittlemips

Disassembly of section .text1:

bfc00000 <BOOT_Entry>:
bfc00000:	06 00 f0 0b 00 00 00 00 00 00 00 00 00 00 00 00     ................
bfc00010:	00 00 00 00 12 03 08 20                             ....... 

bfc00018 <ROM_start>:
bfc00018:	3c08bf80 	lui	t0,0xbf80
bfc0001c:	2409029f 	li	t1,671
bfc00020:	ad093ddc 	sw	t1,15836(t0)
bfc00024:	04110011 	bal	bfc0006c <BOOT_InitReg>
bfc00028:	00000000 	nop
bfc0002c:	3c08bf80 	lui	t0,0xbf80
bfc00030:	24090001 	li	t1,1
bfc00034:	ad093ddc 	sw	t1,15836(t0)
bfc00038:	04110019 	bal	bfc000a0 <BOOT_InitCache>
bfc0003c:	00000000 	nop
bfc00040:	3c08bf80 	lui	t0,0xbf80
bfc00044:	24090002 	li	t1,2
bfc00048:	ad093ddc 	sw	t1,15836(t0)
bfc0004c:	00000000 	nop
bfc00050:	3c08bf80 	lui	t0,0xbf80
bfc00054:	24090003 	li	t1,3
bfc00058:	ad093ddc 	sw	t1,15836(t0)
bfc0005c:	3c1f9400 	lui	ra,0x9400
bfc00060:	27ff0c00 	addiu	ra,ra,3072
bfc00064:	03e00008 	jr	ra
bfc00068:	00000000 	nop

bfc0006c <BOOT_InitReg>:
bfc0006c:	4008b800 	mfc0	t0,c0_debug
bfc00070:	3c01fdff 	lui	at,0xfdff
bfc00074:	3421ffff 	ori	at,at,0xffff
bfc00078:	01014024 	and	t0,t0,at
bfc0007c:	4088b800 	mtc0	t0,c0_debug
bfc00080:	40804800 	mtc0	zero,c0_count
bfc00084:	3c081040 	lui	t0,0x1040
bfc00088:	40886000 	mtc0	t0,c0_status
bfc0008c:	40806800 	mtc0	zero,c0_cause
bfc00090:	24080002 	li	t0,2
bfc00094:	40888000 	mtc0	t0,c0_config
bfc00098:	03e00008 	jr	ra
bfc0009c:	00000000 	nop

bfc000a0 <BOOT_InitCache>:
bfc000a0:	4080e000 	mtc0	zero,c0_taglo
bfc000a4:	4080e800 	mtc0	zero,c0_taghi
bfc000a8:	40088001 	mfc0	t0,c0_config1
bfc000ac:	3c090038 	lui	t1,0x38
bfc000b0:	01094824 	and	t1,t0,t1
bfc000b4:	00094cc2 	srl	t1,t1,0x13
bfc000b8:	11200017 	beqz	t1,bfc00118 <Icache_done>
bfc000bc:	00000000 	nop
bfc000c0:	240a0002 	li	t2,2
bfc000c4:	012a5004 	sllv	t2,t2,t1
bfc000c8:	3c0901c0 	lui	t1,0x1c0
bfc000cc:	01094824 	and	t1,t0,t1
bfc000d0:	00094d82 	srl	t1,t1,0x16
bfc000d4:	240b0040 	li	t3,64
bfc000d8:	012b5804 	sllv	t3,t3,t1
bfc000dc:	3c090007 	lui	t1,0x7
bfc000e0:	01094824 	and	t1,t0,t1
bfc000e4:	00094c02 	srl	t1,t1,0x10
bfc000e8:	212c0001 	addi	t4,t1,1
bfc000ec:	3c0e8000 	lui	t6,0x8000
bfc000f0:	01607821 	move	t7,t3

bfc000f4 <Icache_loop>:
bfc000f4:	bdc80000 	cache	0x8,0(t6)
bfc000f8:	01ca7020 	add	t6,t6,t2
bfc000fc:	21efffff 	addi	t7,t7,-1
bfc00100:	15e0fffc 	bnez	t7,bfc000f4 <Icache_loop>
bfc00104:	00000000 	nop
bfc00108:	01607821 	move	t7,t3
bfc0010c:	218cffff 	addi	t4,t4,-1
bfc00110:	1580fff8 	bnez	t4,bfc000f4 <Icache_loop>
bfc00114:	00000000 	nop

bfc00118 <Icache_done>:
bfc00118:	24091c00 	li	t1,7168
bfc0011c:	01094824 	and	t1,t0,t1
bfc00120:	00094a82 	srl	t1,t1,0xa
bfc00124:	11200017 	beqz	t1,bfc00184 <Dcache_done>
bfc00128:	00000000 	nop
bfc0012c:	240a0002 	li	t2,2
bfc00130:	012a5004 	sllv	t2,t2,t1
bfc00134:	3409e000 	li	t1,0xe000
bfc00138:	01094824 	and	t1,t0,t1
bfc0013c:	00094b42 	srl	t1,t1,0xd
bfc00140:	240b0040 	li	t3,64
bfc00144:	012b5804 	sllv	t3,t3,t1
bfc00148:	24090380 	li	t1,896
bfc0014c:	01094824 	and	t1,t0,t1
bfc00150:	000949c2 	srl	t1,t1,0x7
bfc00154:	212c0001 	addi	t4,t1,1
bfc00158:	3c0e8000 	lui	t6,0x8000
bfc0015c:	01607821 	move	t7,t3

bfc00160 <Dcache_loop>:
bfc00160:	bdc90000 	cache	0x9,0(t6)
bfc00164:	01ca7020 	add	t6,t6,t2
bfc00168:	21efffff 	addi	t7,t7,-1
bfc0016c:	15e0fffc 	bnez	t7,bfc00160 <Dcache_loop>
bfc00170:	00000000 	nop
bfc00174:	01607821 	move	t7,t3
bfc00178:	218cffff 	addi	t4,t4,-1
bfc0017c:	1580fff8 	bnez	t4,bfc00160 <Dcache_loop>
bfc00180:	00000000 	nop

bfc00184 <Dcache_done>:
bfc00184:	40088000 	mfc0	t0,c0_config
bfc00188:	2401fff8 	li	at,-8
bfc0018c:	01014024 	and	t0,t0,at
bfc00190:	24080003 	li	t0,3
bfc00194:	40888000 	mtc0	t0,c0_config
bfc00198:	03e00008 	jr	ra
bfc0019c:	00000000 	nop

bfc001a0 <BOOT_InitDSPRAM>:
bfc001a0:	3c111000 	lui	s1,0x1000
bfc001a4:	4091d000 	mtc0	s1,c0_errctl
bfc001a8:	2410ffff 	li	s0,-1
bfc001ac:	4090e000 	mtc0	s0,c0_taglo
bfc001b0:	3c118000 	lui	s1,0x8000
bfc001b4:	be290000 	cache	0x9,0(s1)
bfc001b8:	3c100400 	lui	s0,0x400
bfc001bc:	4090e000 	mtc0	s0,c0_taglo
bfc001c0:	be290010 	cache	0x9,16(s1)
bfc001c4:	4080e000 	mtc0	zero,c0_taglo
bfc001c8:	4080e800 	mtc0	zero,c0_taghi
bfc001cc:	4080d000 	mtc0	zero,c0_errctl
bfc001d0:	3c0f8000 	lui	t7,0x8000
bfc001d4:	02118025 	or	s0,s0,s1
bfc001d8:	240f1000 	li	t7,4096

bfc001dc <Dspram_loop>:
bfc001dc:	ae000000 	sw	zero,0(s0)
bfc001e0:	22100004 	addi	s0,s0,4
bfc001e4:	21effffc 	addi	t7,t7,-4
bfc001e8:	15e0fffc 	bnez	t7,bfc001dc <Dspram_loop>
bfc001ec:	00000000 	nop

bfc001f0 <Dspram_done>:
bfc001f0:	03e00008 	jr	ra
bfc001f4:	00000000 	nop
	...

bfc00380 <BOOT_ExceptionHandler>:
bfc00380:	3c1abf80 375a3cdc 8f5b0000 241a0003     ...<.<Z7..[....$
bfc00390:	037ad824 177a0008 00000000 401a6000     $.z...z......`.@
bfc003a0:	3c1bffbf 377bffff 035bd024 409a6000     ...<..{7$.[..`.@
bfc003b0:	42000018 00000000                       ...B....

bfc003b8 <BOOT_ExceptionHandler_RESET_CPU>:
bfc003b8:	0bf000e0 	j	bfc00380 <BOOT_ExceptionHandler>
bfc003bc:	00000000 	nop
	...

bfc00a80 <BOOT_CPU_DRAM_Standby>:
bfc00a80:	40026000 	mfc0	v0,c0_status
bfc00a84:	00000000 	nop
bfc00a88:	34420001 	ori	v0,v0,0x1
bfc00a8c:	40826000 	mtc0	v0,c0_status
	...
bfc00a9c:	42000020 	wait
bfc00aa0:	00000000 	nop
bfc00aa4:	03e00008 	jr	ra
bfc00aa8:	00000000 	nop
	...
Disassembly of section .text2:

94000c00 <BOOTROM_Entry>:
94000c00:	3c08bf80 24090010 ad093ddc 041100e9     ...<...$.=......
94000c10:	00000000 3c08bf80 2409001a ad093ddc     .......<...$.=..
94000c20:	041100c8 00000000 3c08bf80 2409000d     ...........<...$
94000c30:	ad091300 3c08bf80 2409000a ad091300     .......<...$....
94000c40:	3c08bf80 24090042 ad091300 3c08bf80     ...<B..$.......<
94000c50:	24090049 ad091300 3c08bf80 24090053     I..$.......<S..$
94000c60:	ad091300 3c08bf80 24090054 ad091300     .......<T..$....
94000c70:	3c08bf80 24090030 ad091300 3c08bf80     ...<0..$.......<
94000c80:	24090020 ad091300 34075aa5 24090000      ..$.....Z.4...$
94000c90:	ad0925c8 8d0425cc 3084ff00 34840080     .%...%.....0...4
94000ca0:	ad0425cc 04110046 00000000 3c08bf80     .%..F..........<
94000cb0:	24090042 ad091300 3c08bf80 24090049     B..$.......<I..$
94000cc0:	ad091300 3c08bf80 24090053 ad091300     .......<S..$....
94000cd0:	3c08bf80 24090054 ad091300 3c08bf80     ...<T..$.......<
94000ce0:	24090031 ad091300 3c08bf80 24090020     1..$.......< ..$
94000cf0:	ad091300 8d0425e0 34848000 ad0425e0     .....%.....4.%..
94000d00:	8d0425c0 3084ff00 ad0425c0 3407a55a     .%.....0.%..Z..4
94000d10:	24090000 ad0925c8 8d0425cc 3084ff00     ...$.%...%.....0
94000d20:	34840080 ad0425cc 04110025 00000000     ...4.%..%.......
94000d30:	8d0425c0 3084ff00 ad0425c0 8d0425e0     .%.....0.%...%..
94000d40:	30847fff ad0425e0 3c08bf80 24090042     ...0.%.....<B..$
94000d50:	ad091300 00000000 3c08bf80 2409001b     ...........<...$
94000d60:	ad093ddc 3c08bf80 2409004f ad091300     .=.....<O..$....
94000d70:	04110047 00000000 3c08bf80 2409001c     G..........<...$
94000d80:	ad093ddc 3c08bf80 2409004f ad091300     .=.....<O..$....
94000d90:	04110053 00000000 3c08bf80 2409001d     S..........<...$
94000da0:	ad093ddc 3c08bf80 24090054 ad091300     .=.....<T..$....
94000db0:	3c1f8090 27ff0000 03e00008 00000000     ...<...'........

94000dc0 <BOOTROM_MIU_BIST>:
94000dc0:	3c08bf80 	lui	t0,0xbf80
94000dc4:	24090000 	li	t1,0
94000dc8:	ad0925c4 	sw	t1,9668(t0)
94000dcc:	ad0725d0 	sw	a3,9680(t0)
94000dd0:	8d0425c0 	lw	a0,9664(t0)
94000dd4:	308400ff 	andi	a0,a0,0xff
94000dd8:	ad0425c0 	sw	a0,9664(t0)
94000ddc:	8d0425c0 	lw	a0,9664(t0)
94000de0:	3084ff00 	andi	a0,a0,0xff00
94000de4:	ad0425c0 	sw	a0,9664(t0)
94000de8:	8d0425c0 	lw	a0,9664(t0)
94000dec:	3084ff00 	andi	a0,a0,0xff00
94000df0:	34840003 	ori	a0,a0,0x3
94000df4:	ad0425c0 	sw	a0,9664(t0)

94000df8 <MIU_BIST_CHK>:
94000df8:	8d0425c0 	lw	a0,9664(t0)
94000dfc:	30848000 	andi	a0,a0,0x8000
94000e00:	14800003 	bnez	a0,94000e10 <MIU_BIST_CHK_RES>
94000e04:	00000000 	nop
94000e08:	0900037e 	j	94000df8 <MIU_BIST_CHK>
94000e0c:	00000000 	nop

94000e10 <MIU_BIST_CHK_RES>:
94000e10:	8d0425c0 	lw	a0,9664(t0)
94000e14:	30844000 	andi	a0,a0,0x4000
94000e18:	1480000f 	bnez	a0,94000e58 <MIU_BIST_FAIL>
94000e1c:	00000000 	nop
94000e20:	3c08bf80 	lui	t0,0xbf80
94000e24:	2409004f 	li	t1,79
94000e28:	ad091300 	sw	t1,4864(t0)
94000e2c:	3c08bf80 	lui	t0,0xbf80
94000e30:	2409004b 	li	t1,75
94000e34:	ad091300 	sw	t1,4864(t0)
94000e38:	3c08bf80 	lui	t0,0xbf80
94000e3c:	2409000a 	li	t1,10
94000e40:	ad091300 	sw	t1,4864(t0)
94000e44:	3c08bf80 	lui	t0,0xbf80
94000e48:	2409000d 	li	t1,13
94000e4c:	ad091300 	sw	t1,4864(t0)
94000e50:	03e00008 	jr	ra
94000e54:	00000000 	nop

94000e58 <MIU_BIST_FAIL>:
94000e58:	3c08bf80 	lui	t0,0xbf80
94000e5c:	2409004e 	li	t1,78
94000e60:	ad091300 	sw	t1,4864(t0)
94000e64:	3c08bf80 	lui	t0,0xbf80
94000e68:	24090047 	li	t1,71
94000e6c:	ad091300 	sw	t1,4864(t0)
94000e70:	3c08bf80 	lui	t0,0xbf80
94000e74:	2409000a 	li	t1,10
94000e78:	ad091300 	sw	t1,4864(t0)
94000e7c:	3c08bf80 	lui	t0,0xbf80
94000e80:	2409000d 	li	t1,13
94000e84:	ad091300 	sw	t1,4864(t0)

94000e88 <MIU_DAMN>:
94000e88:	090003a2 	j	94000e88 <MIU_DAMN>
94000e8c:	00000000 	nop

94000e90 <BOOTROM_CopyZipBin>:
94000e90:	3c08bfc0 	lui	t0,0xbfc0
94000e94:	35083bb0 	ori	t0,t0,0x3bb0
94000e98:	3c09a100 	lui	t1,0xa100
94000e9c:	3c0aa129 	lui	t2,0xa129
94000ea0:	354a0b78 	ori	t2,t2,0xb78
94000ea4:	8d0c0000 	lw	t4,0(t0)
94000ea8:	8d0d0004 	lw	t5,4(t0)
94000eac:	8d0e0008 	lw	t6,8(t0)
94000eb0:	8d0f000c 	lw	t7,12(t0)
94000eb4:	ad2c0000 	sw	t4,0(t1)
94000eb8:	ad2d0004 	sw	t5,4(t1)
94000ebc:	ad2e0008 	sw	t6,8(t1)
94000ec0:	ad2f000c 	sw	t7,12(t1)
94000ec4:	25080010 	addiu	t0,t0,16
94000ec8:	25290010 	addiu	t1,t1,16
94000ecc:	012a082b 	sltu	at,t1,t2
94000ed0:	1420fff4 	bnez	at,94000ea4 <BOOTROM_CopyZipBin+0x14>
94000ed4:	00000000 	nop
94000ed8:	03e00008 	jr	ra
94000edc:	00000000 	nop

94000ee0 <BOOT_CopyBootRAM>:
94000ee0:	3c089400 	lui	t0,0x9400
94000ee4:	25081800 	addiu	t0,t0,6144
94000ee8:	3c098090 	lui	t1,0x8090
94000eec:	25290000 	addiu	t1,t1,0
94000ef0:	3c01a000 	lui	at,0xa000
94000ef4:	01214825 	or	t1,t1,at
94000ef8:	3c0a8090 	lui	t2,0x8090
94000efc:	254a0800 	addiu	t2,t2,2048
94000f00:	3c01a000 	lui	at,0xa000
94000f04:	01415025 	or	t2,t2,at
94000f08:	8d0b0000 	lw	t3,0(t0)
94000f0c:	8d0c0004 	lw	t4,4(t0)
94000f10:	8d0d0008 	lw	t5,8(t0)
94000f14:	8d0e000c 	lw	t6,12(t0)
94000f18:	ad2b0000 	sw	t3,0(t1)
94000f1c:	ad2c0004 	sw	t4,4(t1)
94000f20:	ad2d0008 	sw	t5,8(t1)
94000f24:	ad2e000c 	sw	t6,12(t1)
94000f28:	25080010 	addiu	t0,t0,16
94000f2c:	25290010 	addiu	t1,t1,16
94000f30:	012a082b 	sltu	at,t1,t2
94000f34:	1420fff4 	bnez	at,94000f08 <BOOT_CopyBootRAM+0x28>
94000f38:	00000000 	nop
94000f3c:	03e00008 	jr	ra
94000f40:	00000000 	nop

94000f44 <BOOT_InitUART>:
94000f44:	3c08bf80 	lui	t0,0xbf80
94000f48:	24090008 	li	t1,8
94000f4c:	ad093c8c 	sw	t1,15500(t0)
94000f50:	240901c0 	li	t1,448
94000f54:	ad093c78 	sw	t1,15480(t0)
94000f58:	3c08bf80 	lui	t0,0xbf80
94000f5c:	24090000 	li	t1,0
94000f60:	ad091304 	sw	t1,4868(t0)
94000f64:	3c08bf80 	lui	t0,0xbf80
94000f68:	24090007 	li	t1,7
94000f6c:	ad091308 	sw	t1,4872(t0)
94000f70:	3c08bf80 	lui	t0,0xbf80
94000f74:	24090003 	li	t1,3
94000f78:	ad09130c 	sw	t1,4876(t0)
94000f7c:	3c08bf80 	lui	t0,0xbf80
94000f80:	24090083 	li	t1,131
94000f84:	ad09130c 	sw	t1,4876(t0)
94000f88:	3c08bf80 	lui	t0,0xbf80
94000f8c:	24090000 	li	t1,0
94000f90:	ad091304 	sw	t1,4868(t0)
94000f94:	3c08bf80 	lui	t0,0xbf80
94000f98:	24090042 	li	t1,66
94000f9c:	ad091300 	sw	t1,4864(t0)
94000fa0:	3c08bf80 	lui	t0,0xbf80
94000fa4:	24090003 	li	t1,3
94000fa8:	ad09130c 	sw	t1,4876(t0)
94000fac:	03e00008 	jr	ra
94000fb0:	00000000 	nop

94000fb4 <BOOT_PowerOnSeq>:
94000fb4:	3c08bf80 	lui	t0,0xbf80
94000fb8:	3409aa55 	li	t1,0xaa55
94000fbc:	ad0978c0 	sw	t1,30912(t0)
94000fc0:	24090000 	li	t1,0
94000fc4:	ad094a10 	sw	t1,18960(t0)
94000fc8:	24090000 	li	t1,0
94000fcc:	ad094a10 	sw	t1,18960(t0)
94000fd0:	24090000 	li	t1,0
94000fd4:	ad094a18 	sw	t1,18968(t0)
94000fd8:	24090024 	li	t1,36
94000fdc:	ad094a28 	sw	t1,18984(t0)
94000fe0:	24090506 	li	t1,1286
94000fe4:	ad094a20 	sw	t1,18976(t0)
94000fe8:	24090000 	li	t1,0
94000fec:	ad094a2c 	sw	t1,18988(t0)
94000ff0:	24090000 	li	t1,0
94000ff4:	ad094b80 	sw	t1,19328(t0)
94000ff8:	8d043c48 	lw	a0,15432(t0)
94000ffc:	308400ff 	andi	a0,a0,0xff
94001000:	34840000 	ori	a0,a0,0x0
94001004:	ad043c48 	sw	a0,15432(t0)
94001008:	24090000 	li	t1,0
9400100c:	ad0925e0 	sw	t1,9696(t0)
94001010:	24090000 	li	t1,0
94001014:	ad0925e4 	sw	t1,9700(t0)
94001018:	24090000 	li	t1,0
9400101c:	ad0925e8 	sw	t1,9704(t0)
94001020:	24090000 	li	t1,0
94001024:	ad0925ec 	sw	t1,9708(t0)
94001028:	8d04243c 	lw	a0,9276(t0)
9400102c:	34840001 	ori	a0,a0,0x1
94001030:	ad04243c 	sw	a0,9276(t0)
94001034:	3084fffe 	andi	a0,a0,0xfffe
94001038:	ad04243c 	sw	a0,9276(t0)
9400103c:	8d040c3c 	lw	a0,3132(t0)
94001040:	34840001 	ori	a0,a0,0x1
94001044:	ad040c3c 	sw	a0,3132(t0)
94001048:	3084fffe 	andi	a0,a0,0xfffe
9400104c:	ad040c3c 	sw	a0,3132(t0)
94001050:	3409ffff 	li	t1,0xffff
94001054:	ad09248c 	sw	t1,9356(t0)
94001058:	3409ffff 	li	t1,0xffff
9400105c:	ad0924cc 	sw	t1,9420(t0)
94001060:	3409ffff 	li	t1,0xffff
94001064:	ad09250c 	sw	t1,9484(t0)
94001068:	3409ffff 	li	t1,0xffff
9400106c:	ad09254c 	sw	t1,9548(t0)
94001070:	3409ffff 	li	t1,0xffff
94001074:	ad090c8c 	sw	t1,3212(t0)
94001078:	3409ffff 	li	t1,0xffff
9400107c:	ad090ccc 	sw	t1,3276(t0)
94001080:	3409ffff 	li	t1,0xffff
94001084:	ad090d0c 	sw	t1,3340(t0)
94001088:	3409ffff 	li	t1,0xffff
9400108c:	ad090d4c 	sw	t1,3404(t0)
94001090:	8d042580 	lw	a0,9600(t0)
94001094:	3084ff00 	andi	a0,a0,0xff00
94001098:	34840000 	ori	a0,a0,0x0
9400109c:	ad042580 	sw	a0,9600(t0)
940010a0:	8d040d80 	lw	a0,3456(t0)
940010a4:	3084ff00 	andi	a0,a0,0xff00
940010a8:	34840000 	ori	a0,a0,0x0
940010ac:	ad040d80 	sw	a0,3456(t0)
940010b0:	24090000 	li	t1,0
940010b4:	ad092400 	sw	t1,9216(t0)
940010b8:	24090c45 	li	t1,3141
940010bc:	ad092404 	sw	t1,9220(t0)
940010c0:	24090e98 	li	t1,3736
940010c4:	ad092408 	sw	t1,9224(t0)
940010c8:	24094060 	li	t1,16480
940010cc:	ad09240c 	sw	t1,9228(t0)
940010d0:	24095572 	li	t1,21874
940010d4:	ad092410 	sw	t1,9232(t0)
940010d8:	24093264 	li	t1,12900
940010dc:	ad092414 	sw	t1,9236(t0)
940010e0:	24093328 	li	t1,13096
940010e4:	ad092418 	sw	t1,9240(t0)
940010e8:	340995ea 	li	t1,0x95ea
940010ec:	ad09241c 	sw	t1,9244(t0)
940010f0:	24090000 	li	t1,0
940010f4:	ad092420 	sw	t1,9248(t0)
940010f8:	24090000 	li	t1,0
940010fc:	ad092424 	sw	t1,9252(t0)
94001100:	24091040 	li	t1,4160
94001104:	ad092428 	sw	t1,9256(t0)
94001108:	24092000 	li	t1,8192
9400110c:	ad09242c 	sw	t1,9260(t0)
94001110:	24093000 	li	t1,12288
94001114:	ad092430 	sw	t1,9264(t0)
94001118:	24095757 	li	t1,22359
9400111c:	ad092434 	sw	t1,9268(t0)
94001120:	24091800 	li	t1,6144
94001124:	ad092438 	sw	t1,9272(t0)
94001128:	24090c00 	li	t1,3072
9400112c:	ad09243c 	sw	t1,9276(t0)
94001130:	24091129 	li	t1,4393
94001134:	ad092440 	sw	t1,9280(t0)
94001138:	24090000 	li	t1,0
9400113c:	ad092444 	sw	t1,9284(t0)
94001140:	34098000 	li	t1,0x8000
94001144:	ad092448 	sw	t1,9288(t0)
94001148:	24090000 	li	t1,0
9400114c:	ad09244c 	sw	t1,9292(t0)
94001150:	24090000 	li	t1,0
94001154:	ad092450 	sw	t1,9296(t0)
94001158:	24090000 	li	t1,0
9400115c:	ad092454 	sw	t1,9300(t0)
94001160:	24090000 	li	t1,0
94001164:	ad092458 	sw	t1,9304(t0)
94001168:	24090000 	li	t1,0
9400116c:	ad09245c 	sw	t1,9308(t0)
94001170:	24090045 	li	t1,69
94001174:	ad092460 	sw	t1,9312(t0)
94001178:	24090055 	li	t1,85
9400117c:	ad092464 	sw	t1,9316(t0)
94001180:	24090000 	li	t1,0
94001184:	ad092468 	sw	t1,9320(t0)
94001188:	24090244 	li	t1,580
9400118c:	ad09246c 	sw	t1,9324(t0)
94001190:	24090040 	li	t1,64
94001194:	ad092470 	sw	t1,9328(t0)
94001198:	240900c3 	li	t1,195
9400119c:	ad092474 	sw	t1,9332(t0)
940011a0:	24090000 	li	t1,0
940011a4:	ad092478 	sw	t1,9336(t0)
940011a8:	24094090 	li	t1,16528
940011ac:	ad09247c 	sw	t1,9340(t0)
940011b0:	3c0a00a4 	lui	t2,0xa4
940011b4:	354acb80 	ori	t2,t2,0xcb80
940011b8:	401a4800 	mfc0	k0,c0_count
940011bc:	40094800 	mfc0	t1,c0_count
940011c0:	013a5823 	subu	t3,t1,k0
940011c4:	016a082a 	slt	at,t3,t2
940011c8:	1420fffc 	bnez	at,940011bc <BOOT_PowerOnSeq+0x208>
940011cc:	00000000 	nop
940011d0:	8d042408 	lw	a0,9224(t0)
940011d4:	3084f7ff 	andi	a0,a0,0xf7ff
940011d8:	ad042408 	sw	a0,9224(t0)
940011dc:	34840800 	ori	a0,a0,0x800
940011e0:	ad042408 	sw	a0,9224(t0)
940011e4:	8d042448 	lw	a0,9288(t0)
940011e8:	308400ff 	andi	a0,a0,0xff
940011ec:	34848000 	ori	a0,a0,0x8000
940011f0:	ad042448 	sw	a0,9288(t0)
940011f4:	8d04244c 	lw	a0,9292(t0)
940011f8:	308400ff 	andi	a0,a0,0xff
940011fc:	34840000 	ori	a0,a0,0x0
94001200:	ad04244c 	sw	a0,9292(t0)
94001204:	24091129 	li	t1,4393
94001208:	ad092440 	sw	t1,9280(t0)
9400120c:	8d043c48 	lw	a0,15432(t0)
94001210:	308400ff 	andi	a0,a0,0xff
94001214:	3484c000 	ori	a0,a0,0xc000
94001218:	ad043c48 	sw	a0,15432(t0)
9400121c:	8d042438 	lw	a0,9272(t0)
94001220:	34844000 	ori	a0,a0,0x4000
94001224:	ad042438 	sw	a0,9272(t0)
94001228:	24090000 	li	t1,0
9400122c:	ad090c00 	sw	t1,3072(t0)
94001230:	24090c45 	li	t1,3141
94001234:	ad090c04 	sw	t1,3076(t0)
94001238:	24090e98 	li	t1,3736
9400123c:	ad090c08 	sw	t1,3080(t0)
94001240:	24090060 	li	t1,96
94001244:	ad090c0c 	sw	t1,3084(t0)
94001248:	24095572 	li	t1,21874
9400124c:	ad090c10 	sw	t1,3088(t0)
94001250:	24093264 	li	t1,12900
94001254:	ad090c14 	sw	t1,3092(t0)
94001258:	24093328 	li	t1,13096
9400125c:	ad090c18 	sw	t1,3096(t0)
94001260:	340995ea 	li	t1,0x95ea
94001264:	ad090c1c 	sw	t1,3100(t0)
94001268:	24090000 	li	t1,0
9400126c:	ad090c20 	sw	t1,3104(t0)
94001270:	24090000 	li	t1,0
94001274:	ad090c24 	sw	t1,3108(t0)
94001278:	24091040 	li	t1,4160
9400127c:	ad090c28 	sw	t1,3112(t0)
94001280:	24092000 	li	t1,8192
94001284:	ad090c2c 	sw	t1,3116(t0)
94001288:	24093000 	li	t1,12288
9400128c:	ad090c30 	sw	t1,3120(t0)
94001290:	24095757 	li	t1,22359
94001294:	ad090c34 	sw	t1,3124(t0)
94001298:	24091800 	li	t1,6144
9400129c:	ad090c38 	sw	t1,3128(t0)
940012a0:	24090c00 	li	t1,3072
940012a4:	ad090c3c 	sw	t1,3132(t0)
940012a8:	24091129 	li	t1,4393
940012ac:	ad090c40 	sw	t1,3136(t0)
940012b0:	24090000 	li	t1,0
940012b4:	ad090c44 	sw	t1,3140(t0)
940012b8:	34098000 	li	t1,0x8000
940012bc:	ad090c48 	sw	t1,3144(t0)
940012c0:	24090000 	li	t1,0
940012c4:	ad090c4c 	sw	t1,3148(t0)
940012c8:	24090000 	li	t1,0
940012cc:	ad090c50 	sw	t1,3152(t0)
940012d0:	24090000 	li	t1,0
940012d4:	ad090c54 	sw	t1,3156(t0)
940012d8:	24090000 	li	t1,0
940012dc:	ad090c58 	sw	t1,3160(t0)
940012e0:	24090000 	li	t1,0
940012e4:	ad090c5c 	sw	t1,3164(t0)
940012e8:	24090044 	li	t1,68
940012ec:	ad090c60 	sw	t1,3168(t0)
940012f0:	24090055 	li	t1,85
940012f4:	ad090c64 	sw	t1,3172(t0)
940012f8:	24090000 	li	t1,0
940012fc:	ad090c68 	sw	t1,3176(t0)
94001300:	24090244 	li	t1,580
94001304:	ad090c6c 	sw	t1,3180(t0)
94001308:	24090040 	li	t1,64
9400130c:	ad090c70 	sw	t1,3184(t0)
94001310:	24090000 	li	t1,0
94001314:	ad090c74 	sw	t1,3188(t0)
94001318:	24090000 	li	t1,0
9400131c:	ad090c78 	sw	t1,3192(t0)
94001320:	24094090 	li	t1,16528
94001324:	ad090c7c 	sw	t1,3196(t0)
94001328:	8d040c08 	lw	a0,3080(t0)
9400132c:	3084f7ff 	andi	a0,a0,0xf7ff
94001330:	ad040c08 	sw	a0,3080(t0)
94001334:	34840800 	ori	a0,a0,0x800
94001338:	ad040c08 	sw	a0,3080(t0)
9400133c:	8d040c00 	lw	a0,3072(t0)
94001340:	3084fffe 	andi	a0,a0,0xfffe
94001344:	ad040c00 	sw	a0,3072(t0)
94001348:	34840001 	ori	a0,a0,0x1
9400134c:	ad040c00 	sw	a0,3072(t0)
94001350:	8d042400 	lw	a0,9216(t0)
94001354:	3084fffe 	andi	a0,a0,0xfffe
94001358:	ad042400 	sw	a0,9216(t0)
9400135c:	34840001 	ori	a0,a0,0x1
94001360:	ad042400 	sw	a0,9216(t0)
94001364:	24090000 	li	t1,0
94001368:	ad09248c 	sw	t1,9356(t0)
9400136c:	24090000 	li	t1,0
94001370:	ad0924cc 	sw	t1,9420(t0)
94001374:	24090000 	li	t1,0
94001378:	ad09250c 	sw	t1,9484(t0)
9400137c:	24090000 	li	t1,0
94001380:	ad09254c 	sw	t1,9548(t0)
94001384:	24090000 	li	t1,0
94001388:	ad090c8c 	sw	t1,3212(t0)
9400138c:	24090000 	li	t1,0
94001390:	ad090ccc 	sw	t1,3276(t0)
94001394:	24090000 	li	t1,0
94001398:	ad090d0c 	sw	t1,3340(t0)
9400139c:	24090000 	li	t1,0
940013a0:	ad090d4c 	sw	t1,3404(t0)

940013a4 <MIU_INIT>:
940013a4:	8d042400 	lw	a0,9216(t0)
940013a8:	30848000 	andi	a0,a0,0x8000
940013ac:	14800006 	bnez	a0,940013c8 <MIU_INIT_DONE>
940013b0:	00000000 	nop
940013b4:	3c08bf80 	lui	t0,0xbf80
940013b8:	2409002c 	li	t1,44
940013bc:	ad093ddc 	sw	t1,15836(t0)
940013c0:	090004e9 	j	940013a4 <MIU_INIT>
940013c4:	00000000 	nop

940013c8 <MIU_INIT_DONE>:
940013c8:	24090800 	li	t1,2048
940013cc:	ad093c5c 	sw	t1,15452(t0)
940013d0:	24090014 	li	t1,20
940013d4:	ad093d54 	sw	t1,15700(t0)
940013d8:	24092020 	li	t1,8224
940013dc:	ad093c6c 	sw	t1,15468(t0)
940013e0:	24090000 	li	t1,0
940013e4:	ad093c14 	sw	t1,15380(t0)
940013e8:	24093c12 	li	t1,15378
940013ec:	ad09578c 	sw	t1,22412(t0)
940013f0:	24090058 	li	t1,88
940013f4:	ad095790 	sw	t1,22416(t0)
940013f8:	2409403c 	li	t1,16444
940013fc:	ad095794 	sw	t1,22420(t0)
94001400:	2409058f 	li	t1,1423
94001404:	ad095798 	sw	t1,22424(t0)
94001408:	24090004 	li	t1,4
9400140c:	ad095788 	sw	t1,22408(t0)
94001410:	03e00008 	jr	ra
94001414:	00000000 	nop
	...
Disassembly of section .text3:

80900000 <BOOTRAM_Entry>:
80900000:	3c08bf80 24090020 ad093ddc 3c08bf80     ...< ..$.=.....<
80900010:	2409005f ad091300 3c1d80d8 04110025     _..$.......<%...
80900020:	00000000 3c08bf80 2409006f ad091300     .......<o..$....
80900030:	3c048100 3c05a040 3c0680d0 3c0780c0     ...<@..<...<...<
80900040:	00e0f809 00000000 18400030 00000000     ........0.@.....
80900050:	3c08bf80 24090021 ad093ddc 3c08bf80     ...<!..$.=.....<
80900060:	2409006b ad091300 3c09a000 ad220000     k..$.......<..".
80900070:	40084800 3c090001 3529a5e0 15200002     .H.@...<..)5.. .
80900080:	0109001b 0007000d 00005012 3c09a000     .........P.....<
80900090:	35290004 ad2a0000 3c08bf80 24090022     ..)5..*....<"..$
809000a0:	ad093ddc 3c088060 35085150 01000008     .=..`..<PQ.5....
809000b0:	00000000                                ....

809000b4 <BOOTRAM_CopyUnzipFun>:
809000b4:	3c08bfc0 	lui	t0,0xbfc0
809000b8:	35082080 	ori	t0,t0,0x2080
809000bc:	3c09a0c0 	lui	t1,0xa0c0
809000c0:	3c0aa0c0 	lui	t2,0xa0c0
809000c4:	354a1b30 	ori	t2,t2,0x1b30
809000c8:	3c0bbfc0 	lui	t3,0xbfc0
809000cc:	356b3bb0 	ori	t3,t3,0x3bb0
809000d0:	8d0c0000 	lw	t4,0(t0)
809000d4:	8d0d0004 	lw	t5,4(t0)
809000d8:	8d0e0008 	lw	t6,8(t0)
809000dc:	8d0f000c 	lw	t7,12(t0)
809000e0:	ad2c0000 	sw	t4,0(t1)
809000e4:	ad2d0004 	sw	t5,4(t1)
809000e8:	ad2e0008 	sw	t6,8(t1)
809000ec:	ad2f000c 	sw	t7,12(t1)
809000f0:	25080010 	addiu	t0,t0,16
809000f4:	25290010 	addiu	t1,t1,16
809000f8:	012a082b 	sltu	at,t1,t2
809000fc:	1420fff4 	bnez	at,809000d0 <BOOTRAM_CopyUnzipFun+0x1c>
80900100:	00000000 	nop
80900104:	03e00008 	jr	ra
80900108:	00000000 	nop

8090010c <BOOTRAM_ExceptionHandler>:
8090010c:	3c1fbfc0 	lui	ra,0xbfc0
80900110:	27ff0380 	addiu	ra,ra,896
80900114:	03e00008 	jr	ra
80900118:	00000000 	nop
	...
